Certificate:
    Data:
        Version: 1 (0x0)
        Serial Number: 1 (0x1)
        Signature Algorithm: sha256WithRSAEncryption
        Issuer: C=PL, ST=Mazovian, L=Kanie, O=BZdybel Urz\xC2\xA5d Certyfikuj\xC2\xA5cy, CN=Bartosz Zdybel
        Validity
            Not Before: Jan 23 22:06:06 2022 GMT
            Not After : Jan 23 22:06:06 2023 GMT
        Subject: C=PL, ST=Mazovian, L=Warsaw, O=Ochrona Danych, CN=server.company.com
        Subject Public Key Info:
            Public Key Algorithm: rsaEncryption
                RSA Public-Key: (2048 bit)
                Modulus:
                    00:c4:db:ec:6f:20:2c:83:00:fc:e8:91:55:e0:39:
                    a7:af:2b:eb:aa:e8:cd:98:8f:59:31:08:be:57:3d:
                    8a:7b:d7:9c:3a:d4:7c:28:d6:45:29:a7:c7:9f:a6:
                    80:76:19:dc:c7:70:e5:99:9b:ca:3c:66:f1:cd:69:
                    78:98:20:26:04:af:b5:0e:89:32:8c:a6:ea:dc:6c:
                    8f:9f:0e:e2:8e:a4:3e:9d:eb:69:48:84:72:13:a5:
                    49:47:1e:98:4d:ad:bd:13:2e:3d:e2:0e:be:10:7b:
                    73:76:31:65:1e:3f:8c:43:ad:67:ac:a5:f3:ff:ae:
                    d1:d9:22:79:ee:cf:aa:8f:54:bc:58:e4:46:a6:a3:
                    c1:3d:62:0c:4c:02:4d:13:e6:9a:0f:ef:88:fd:be:
                    92:83:63:9c:e6:0e:44:5e:04:18:82:9a:b2:b1:c3:
                    af:ed:c2:de:c3:30:4d:57:99:57:b0:c2:48:e9:e1:
                    f1:a8:f1:1e:23:4b:bc:c9:26:4f:a9:a9:7b:ab:a7:
                    2c:48:10:fc:c6:22:c1:bf:fb:65:5d:8b:b6:4b:8c:
                    2f:cd:51:31:25:90:38:01:14:97:55:fa:21:b7:52:
                    bf:09:7c:c9:9a:94:30:2c:a8:ed:8b:dd:14:93:b3:
                    dd:db:38:2b:9d:49:b2:ed:bc:33:65:34:3a:7e:b0:
                    56:17
                Exponent: 65537 (0x10001)
    Signature Algorithm: sha256WithRSAEncryption
         6b:fa:8d:12:11:ae:69:8a:9c:53:06:91:3a:7b:df:2c:94:39:
         cd:88:3e:12:40:d1:01:58:fe:5b:a2:a5:2c:6d:65:e9:69:40:
         21:44:05:f7:cc:2e:db:5a:26:c7:4e:f0:62:4f:80:cd:80:45:
         c3:5e:54:88:9a:9b:b3:12:23:40:eb:84:b4:0b:22:26:a1:fc:
         ac:22:19:71:14:9a:e2:a4:ae:af:c7:83:a6:3a:e9:58:5a:7b:
         84:78:89:c8:9d:2f:a7:9b:4a:bd:ba:c2:2b:00:4e:2a:db:b4:
         20:70:5b:dc:2f:b3:3f:fa:37:d1:0f:18:67:1a:ca:6c:45:e9:
         30:33:03:e3:b3:f0:91:ba:51:0c:69:af:82:e3:c2:6b:9d:a7:
         53:0d:9f:87:c1:79:9b:c6:f7:12:84:53:d9:0a:d3:91:0e:55:
         2f:d5:70:a1:a2:ab:7c:07:a6:99:41:5b:cc:0d:8e:be:47:f3:
         d0:e4:eb:99:c1:77:da:ab:ab:c3:bc:e5:a6:1a:54:9b:2b:35:
         ae:62:d9:54:66:36:89:35:34:9a:f6:a2:9c:3f:d3:8f:8d:91:
         b8:ec:92:23:13:22:b2:51:7a:6e:4b:5b:53:65:83:f2:d6:58:
         16:8b:97:2f:eb:7d:e6:b1:6f:88:31:33:03:87:62:a4:d6:6c:
         af:dd:95:3b
-----BEGIN CERTIFICATE-----
MIIDTDCCAjQCAQEwDQYJKoZIhvcNAQELBQAwcTELMAkGA1UEBhMCUEwxETAPBgNV
BAgMCE1hem92aWFuMQ4wDAYDVQQHDAVLYW5pZTEmMCQGA1UECgwdQlpkeWJlbCBV
cnrCpWQgQ2VydHlmaWt1asKlY3kxFzAVBgNVBAMMDkJhcnRvc3ogWmR5YmVsMB4X
DTIyMDEyMzIyMDYwNloXDTIzMDEyMzIyMDYwNlowZzELMAkGA1UEBhMCUEwxETAP
BgNVBAgMCE1hem92aWFuMQ8wDQYDVQQHDAZXYXJzYXcxFzAVBgNVBAoMDk9jaHJv
bmEgRGFueWNoMRswGQYDVQQDDBJzZXJ2ZXIuY29tcGFueS5jb20wggEiMA0GCSqG
SIb3DQEBAQUAA4IBDwAwggEKAoIBAQDE2+xvICyDAPzokVXgOaevK+uq6M2Yj1kx
CL5XPYp715w61Hwo1kUpp8efpoB2GdzHcOWZm8o8ZvHNaXiYICYEr7UOiTKMpurc
bI+fDuKOpD6d62lIhHITpUlHHphNrb0TLj3iDr4Qe3N2MWUeP4xDrWespfP/rtHZ
Innuz6qPVLxY5Eamo8E9YgxMAk0T5poP74j9vpKDY5zmDkReBBiCmrKxw6/twt7D
ME1XmVewwkjp4fGo8R4jS7zJJk+pqXurpyxIEPzGIsG/+2Vdi7ZLjC/NUTElkDgB
FJdV+iG3Ur8JfMmalDAsqO2L3RSTs93bOCudSbLtvDNlNDp+sFYXAgMBAAEwDQYJ
KoZIhvcNAQELBQADggEBAGv6jRIRrmmKnFMGkTp73yyUOc2IPhJA0QFY/luipSxt
ZelpQCFEBffMLttaJsdO8GJPgM2ARcNeVIiam7MSI0DrhLQLIiah/KwiGXEUmuKk
rq/Hg6Y66Vhae4R4icidL6ebSr26wisATirbtCBwW9wvsz/6N9EPGGcaymxF6TAz
A+Oz8JG6UQxpr4Ljwmudp1MNn4fBeZvG9xKEU9kK05EOVS/VcKGiq3wHpplBW8wN
jr5H89Dk65nBd9qrq8O85aYaVJsrNa5i2VRmNok1NJr2opw/04+NkbjskiMTIrJR
em5LW1Nlg/LWWBaLly/rfeaxb4gxMwOHYqTWbK/dlTs=
-----END CERTIFICATE-----
